; Function Attrs: nounwind uwtable
define hidden i32 @exr_attr_string_init_static_with_length(ptr noundef %0, ptr noundef writeonly %1, ptr noundef %2, i32 noundef %3) local_unnamed_addr #0 {
  %.not = icmp eq ptr %0, null
  br i1 %.not, label %23, label %5

5:                                                ; preds = %4
  %6 = icmp slt i32 %3, 0
  br i1 %6, label %7, label %11

7:                                                ; preds = %5
  %8 = getelementptr inbounds nuw i8, ptr %0, i64 72
  %9 = load ptr, ptr %8, align 8, !tbaa !3
  %10 = tail call i32 (ptr, i32, ptr, ...) %9(ptr noundef nonnull %0, i32 noundef 3, ptr noundef nonnull @.str, i32 noundef %3) #4
  br label %23

11:                                               ; preds = %5
  %.not20 = icmp eq ptr %2, null
  br i1 %.not20, label %12, label %16

12:                                               ; preds = %11
  %13 = getelementptr inbounds nuw i8, ptr %0, i64 64
  %14 = load ptr, ptr %13, align 8, !tbaa !22
  %15 = tail call i32 %14(ptr noundef nonnull %0, i32 noundef 3, ptr noundef nonnull @.str.2) #4
  br label %23

16:                                               ; preds = %11
  %.not21 = icmp eq ptr %1, null
  br i1 %.not21, label %17, label %21

17:                                               ; preds = %16
  %18 = getelementptr inbounds nuw i8, ptr %0, i64 64
  %19 = load ptr, ptr %18, align 8, !tbaa !22
  %20 = tail call i32 %19(ptr noundef nonnull %0, i32 noundef 3, ptr noundef nonnull @.str.1) #4
  br label %23

21:                                               ; preds = %16
  store i64 0, ptr %1, align 8
  store i32 %3, ptr %1, align 8, !tbaa !26
  %22 = getelementptr inbounds nuw i8, ptr %1, i64 8
  store ptr %2, ptr %22, align 8, !tbaa !24
  br label %23

23:                                               ; preds = %4, %21, %17, %12, %7
  %.0 = phi i32 [ %10, %7 ], [ 0, %21 ], [ %20, %17 ], [ %15, %12 ], [ 2, %4 ]
  ret i32 %.0
}